; Function Attrs: nounwind uwtable
define ptr @Gia_ManFromAigSimple(ptr noundef %0) local_unnamed_addr #0 {
  %2 = getelementptr i8, ptr %0, i64 32
  %.val37 = load ptr, ptr %2, align 8, !tbaa !46
  %3 = getelementptr i8, ptr %0, i64 156
  %.val38 = load i32, ptr %3, align 4, !tbaa !47
  %4 = getelementptr i8, ptr %.val37, i64 4
  %.val37.val = load i32, ptr %4, align 4, !tbaa !48
  %5 = sub nsw i32 %.val37.val, %.val38
  %6 = tail call ptr @Gia_ManStart(i32 noundef %5) #17
  %7 = load ptr, ptr %0, align 8, !tbaa !50
  %.not.i = icmp eq ptr %7, null
  br i1 %.not.i, label %Abc_UtilStrsav.exit, label %8

8:                                                ; preds = %1
  %9 = tail call i64 @strlen(ptr noundef nonnull readonly dereferenceable(1) %7) #18
  %10 = add i64 %9, 1
  %11 = tail call noalias ptr @malloc(i64 noundef %10) #19
  %12 = tail call ptr @strcpy(ptr noundef nonnull dereferenceable(1) %11, ptr noundef nonnull readonly dereferenceable(1) %7) #17
  br label %Abc_UtilStrsav.exit

Abc_UtilStrsav.exit:                              ; preds = %1, %8
  %13 = phi ptr [ %11, %8 ], [ null, %1 ]
  store ptr %13, ptr %6, align 8, !tbaa !51
  %14 = getelementptr inbounds nuw i8, ptr %0, i64 8
  %15 = load ptr, ptr %14, align 8, !tbaa !52
  %.not.i45 = icmp eq ptr %15, null
  br i1 %.not.i45, label %Abc_UtilStrsav.exit46, label %16

16:                                               ; preds = %Abc_UtilStrsav.exit
  %17 = tail call i64 @strlen(ptr noundef nonnull readonly dereferenceable(1) %15) #18
  %18 = add i64 %17, 1
  %19 = tail call noalias ptr @malloc(i64 noundef %18) #19
  %20 = tail call ptr @strcpy(ptr noundef nonnull dereferenceable(1) %19, ptr noundef nonnull readonly dereferenceable(1) %15) #17
  br label %Abc_UtilStrsav.exit46

Abc_UtilStrsav.exit46:                            ; preds = %Abc_UtilStrsav.exit, %16
  %21 = phi ptr [ %19, %16 ], [ null, %Abc_UtilStrsav.exit ]
  %22 = getelementptr inbounds nuw i8, ptr %6, i64 8
  store ptr %21, ptr %22, align 8, !tbaa !53
  %23 = getelementptr inbounds nuw i8, ptr %0, i64 120
  %24 = load i32, ptr %23, align 8, !tbaa !54
  %25 = getelementptr inbounds nuw i8, ptr %6, i64 172
  store i32 %24, ptr %25, align 4, !tbaa !55
  tail call void @Aig_ManCleanData(ptr noundef nonnull %0) #17
  %26 = load ptr, ptr %2, align 8, !tbaa !46
  %27 = getelementptr i8, ptr %26, i64 4
  %.val3650 = load i32, ptr %27, align 4, !tbaa !48
  %28 = icmp sgt i32 %.val3650, 0
  br i1 %28, label %.lr.ph, label %.critedge

.lr.ph:                                           ; preds = %Abc_UtilStrsav.exit46, %71
  %indvars.iv = phi i64 [ %indvars.iv.next, %71 ], [ 0, %Abc_UtilStrsav.exit46 ]
  %29 = phi ptr [ %72, %71 ], [ %26, %Abc_UtilStrsav.exit46 ]
  %30 = getelementptr i8, ptr %29, i64 8
  %.val39 = load ptr, ptr %30, align 8, !tbaa !59
  %31 = getelementptr inbounds nuw ptr, ptr %.val39, i64 %indvars.iv
  %32 = load ptr, ptr %31, align 8, !tbaa !60
  %33 = icmp eq ptr %32, null
  br i1 %33, label %71, label %34

34:                                               ; preds = %.lr.ph
  %35 = getelementptr i8, ptr %32, i64 24
  %.val41 = load i64, ptr %35, align 8
  %36 = and i64 %.val41, 7
  switch i64 %36, label %71 [
    i64 5, label %37
    i64 2, label %57
    i64 3, label %59
    i64 1, label %.sink.split
  ]

37:                                               ; preds = %34
  %38 = getelementptr i8, ptr %32, i64 8
  %.val34 = load ptr, ptr %38, align 8, !tbaa !6
  %39 = ptrtoint ptr %.val34 to i64
  %40 = and i64 %39, -2
  %41 = inttoptr i64 %40 to ptr
  %42 = getelementptr inbounds nuw i8, ptr %41, i64 40
  %43 = load i32, ptr %42, align 8, !tbaa !3
  %44 = trunc i64 %39 to i32
  %45 = and i32 %44, 1
  %46 = xor i32 %45, %43
  %47 = getelementptr i8, ptr %32, i64 16
  %.val35 = load ptr, ptr %47, align 8, !tbaa !11
  %48 = ptrtoint ptr %.val35 to i64
  %49 = and i64 %48, -2
  %50 = inttoptr i64 %49 to ptr
  %51 = getelementptr inbounds nuw i8, ptr %50, i64 40
  %52 = load i32, ptr %51, align 8, !tbaa !3
  %53 = trunc i64 %48 to i32
  %54 = and i32 %53, 1
  %55 = xor i32 %54, %52
  %56 = tail call fastcc i32 @Gia_ManAppendAnd(ptr noundef nonnull %6, i32 noundef %46, i32 noundef %55)
  br label %.sink.split

57:                                               ; preds = %34
  %58 = tail call fastcc i32 @Gia_ManAppendCi(ptr noundef nonnull %6)
  br label %.sink.split

59:                                               ; preds = %34
  %60 = getelementptr i8, ptr %32, i64 8
  %.val = load ptr, ptr %60, align 8, !tbaa !6
  %61 = ptrtoint ptr %.val to i64
  %62 = and i64 %61, -2
  %63 = inttoptr i64 %62 to ptr
  %64 = getelementptr inbounds nuw i8, ptr %63, i64 40
  %65 = load i32, ptr %64, align 8, !tbaa !3
  %66 = trunc i64 %61 to i32
  %67 = and i32 %66, 1
  %68 = xor i32 %67, %65
  %69 = tail call fastcc i32 @Gia_ManAppendCo(ptr noundef nonnull %6, i32 noundef %68)
  br label %.sink.split

.sink.split:                                      ; preds = %34, %37, %59, %57
  %.sink = phi i32 [ %58, %57 ], [ %69, %59 ], [ %56, %37 ], [ 1, %34 ]
  %70 = getelementptr inbounds nuw i8, ptr %32, i64 40
  store i32 %.sink, ptr %70, align 8, !tbaa !3
  br label %71

71:                                               ; preds = %.sink.split, %34, %.lr.ph
  %indvars.iv.next = add nuw nsw i64 %indvars.iv, 1
  %72 = load ptr, ptr %2, align 8, !tbaa !46
  %73 = getelementptr i8, ptr %72, i64 4
  %.val36 = load i32, ptr %73, align 4, !tbaa !48
  %74 = sext i32 %.val36 to i64
  %75 = icmp slt i64 %indvars.iv.next, %74
  br i1 %75, label %.lr.ph, label %.critedge, !llvm.loop !78

.critedge:                                        ; preds = %71, %Abc_UtilStrsav.exit46
  %76 = getelementptr i8, ptr %0, i64 104
  %.val40 = load i32, ptr %76, align 8, !tbaa !65
  tail call void @Gia_ManSetRegNum(ptr noundef nonnull %6, i32 noundef %.val40) #17
  ret ptr %6
}